target datalayout = "e-m:e-p270:32:32-p271:32:32-p272:64:64-i64:64-i128:128-f80:128-n8:16:32:64-S128"
target triple = "x86_64-pc-linux-gnu"

%struct.Nm_Entry_t_ = type { i32, i32, ptr, ptr, ptr, [0 x i8] }

; Function Attrs: nounwind uwtable
define i32 @Nm_ManFindIdByName(ptr noundef %0, ptr noundef %1, i32 noundef %2) #0 {
  %4 = alloca i32, align 4
  %5 = alloca ptr, align 8
  %6 = alloca ptr, align 8
  %7 = alloca i32, align 4
  %8 = alloca ptr, align 8
  %9 = alloca i32, align 4
  store ptr %0, ptr %5, align 8, !tbaa !7
  store ptr %1, ptr %6, align 8, !tbaa !23
  store i32 %2, ptr %7, align 4, !tbaa !3
  call void @llvm.lifetime.start.p0(i64 8, ptr %8) #9
  %10 = load ptr, ptr %5, align 8, !tbaa !7
  %11 = load ptr, ptr %6, align 8, !tbaa !23
  %12 = load i32, ptr %7, align 4, !tbaa !3
  %13 = call ptr @Nm_ManTableLookupName(ptr noundef %10, ptr noundef %11, i32 noundef %12)
  store ptr %13, ptr %8, align 8, !tbaa !25
  %14 = icmp ne ptr %13, null
  br i1 %14, label %15, label %19

15:                                               ; preds = %3
  %16 = load ptr, ptr %8, align 8, !tbaa !25
  %17 = getelementptr inbounds nuw %struct.Nm_Entry_t_, ptr %16, i32 0, i32 1
  %18 = load i32, ptr %17, align 4, !tbaa !31
  store i32 %18, ptr %4, align 4
  store i32 1, ptr %9, align 4
  br label %20

19:                                               ; preds = %3
  store i32 -1, ptr %4, align 4
  store i32 1, ptr %9, align 4
  br label %20

20:                                               ; preds = %19, %15
  call void @llvm.lifetime.end.p0(i64 8, ptr %8) #9
  %21 = load i32, ptr %4, align 4
  ret i32 %21
}

; Function Attrs: nounwind uwtable
define i32 @Nm_ManFindIdByNameTwoTypes(ptr noundef %0, ptr noundef %1, i32 noundef %2, i32 noundef %3) #0 {
  %5 = alloca i32, align 4
  %6 = alloca ptr, align 8
  %7 = alloca ptr, align 8
  %8 = alloca i32, align 4
  %9 = alloca i32, align 4
  %10 = alloca i32, align 4
  %11 = alloca i32, align 4
  store ptr %0, ptr %6, align 8, !tbaa !7
  store ptr %1, ptr %7, align 8, !tbaa !23
  store i32 %2, ptr %8, align 4, !tbaa !3
  store i32 %3, ptr %9, align 4, !tbaa !3
  call void @llvm.lifetime.start.p0(i64 4, ptr %10) #9
  %12 = load ptr, ptr %6, align 8, !tbaa !7
  %13 = load ptr, ptr %7, align 8, !tbaa !23
  %14 = load i32, ptr %8, align 4, !tbaa !3
  %15 = call i32 @Nm_ManFindIdByName(ptr noundef %12, ptr noundef %13, i32 noundef %14)
  store i32 %15, ptr %10, align 4, !tbaa !3
  %16 = load i32, ptr %10, align 4, !tbaa !3
  %17 = icmp eq i32 %16, -1
  br i1 %17, label %18, label %23

18:                                               ; preds = %4
  %19 = load ptr, ptr %6, align 8, !tbaa !7
  %20 = load ptr, ptr %7, align 8, !tbaa !23
  %21 = load i32, ptr %9, align 4, !tbaa !3
  %22 = call i32 @Nm_ManFindIdByName(ptr noundef %19, ptr noundef %20, i32 noundef %21)
  store i32 %22, ptr %10, align 4, !tbaa !3
  br label %23

23:                                               ; preds = %18, %4
  %24 = load i32, ptr %10, align 4, !tbaa !3
  %25 = icmp eq i32 %24, -1
  br i1 %25, label %26, label %27

26:                                               ; preds = %23
  store i32 -1, ptr %5, align 4
  store i32 1, ptr %11, align 4
  br label %29

27:                                               ; preds = %23
  %28 = load i32, ptr %10, align 4, !tbaa !3
  store i32 %28, ptr %5, align 4
  store i32 1, ptr %11, align 4
  br label %29

29:                                               ; preds = %27, %26
  call void @llvm.lifetime.end.p0(i64 4, ptr %10) #9
  %30 = load i32, ptr %5, align 4
  ret i32 %30
}