; Function Attrs: nounwind uwtable
define i32 @Nm_ManFindIdByNameTwoTypes(ptr noundef %0, ptr noundef %1, i32 noundef %2, i32 noundef %3) local_unnamed_addr #0 {
  %5 = tail call ptr @Nm_ManTableLookupName(ptr noundef %0, ptr noundef %1, i32 noundef %2) #10
  %.not.i = icmp eq ptr %5, null
  br i1 %.not.i, label %Nm_ManFindIdByName.exit.thread, label %Nm_ManFindIdByName.exit

Nm_ManFindIdByName.exit:                          ; preds = %4
  %6 = getelementptr inbounds nuw i8, ptr %5, i64 4
  %7 = load i32, ptr %6, align 4, !tbaa !20
  %8 = icmp eq i32 %7, -1
  br i1 %8, label %Nm_ManFindIdByName.exit.thread, label %Nm_ManFindIdByName.exit13

Nm_ManFindIdByName.exit.thread:                   ; preds = %4, %Nm_ManFindIdByName.exit
  %9 = tail call ptr @Nm_ManTableLookupName(ptr noundef %0, ptr noundef %1, i32 noundef %3) #10
  %.not.i11 = icmp eq ptr %9, null
  br i1 %.not.i11, label %Nm_ManFindIdByName.exit13, label %10

10:                                               ; preds = %Nm_ManFindIdByName.exit.thread
  %11 = getelementptr inbounds nuw i8, ptr %9, i64 4
  %12 = load i32, ptr %11, align 4, !tbaa !20
  br label %Nm_ManFindIdByName.exit13

Nm_ManFindIdByName.exit13:                        ; preds = %10, %Nm_ManFindIdByName.exit.thread, %Nm_ManFindIdByName.exit
  %.0 = phi i32 [ %7, %Nm_ManFindIdByName.exit ], [ %12, %10 ], [ -1, %Nm_ManFindIdByName.exit.thread ]
  ret i32 %.0
}